target datalayout = "e-m:e-p270:32:32-p271:32:32-p272:64:64-i64:64-i128:128-f80:128-n8:16:32:64-S128"
target triple = "x86_64-pc-linux-gnu"

@ssyncp_handle = internal global ptr null, align 8
@pref_ssyncp_key = internal global ptr null, align 8
@proto_reg_handoff_ssyncp.initialized = internal global i8 0, align 1
@.str.45 = private unnamed_addr constant [9 x i8] c"udp.port\00", align 1
@.str.46 = private unnamed_addr constant [9 x i8] c"protobuf\00", align 1
@dissector_protobuf = internal global ptr null, align 8
@.str.47 = private unnamed_addr constant [34 x i8] c"unable to find protobuf dissector\00", align 1
@have_ssyncp_key = internal global i8 0, align 1
@.str.48 = private unnamed_addr constant [48 x i8] c"ssyncp: invalid key, must be 22 characters long\00", align 1
@.str.49 = private unnamed_addr constant [4 x i8] c"==\00\00", align 1
@.str.50 = private unnamed_addr constant [65 x i8] c"ssyncp: invalid key, base64 decoding (with \22==\22 appended) failed\00", align 1
@ssyncp_raw_aes_key = internal global [16 x i8] zeroinitializer, align 16

; Function Attrs: alwaysinline nounwind
define internal ptr @memcpy.inline(ptr noalias %0, ptr noalias %1, i64 %2) #4 {
  %4 = alloca ptr, align 8
  %5 = alloca ptr, align 8
  %6 = alloca i64, align 8
  store ptr %0, ptr %4, align 8
  store ptr %1, ptr %5, align 8
  store i64 %2, ptr %6, align 8
  %7 = load ptr, ptr %4, align 8
  %8 = load ptr, ptr %5, align 8
  %9 = load i64, ptr %6, align 8
  %10 = load ptr, ptr %4, align 8
  %11 = call i64 @llvm.objectsize.i64.p0(ptr %10, i1 false, i1 true, i1 true)
  %12 = call ptr @__memcpy_chk(ptr noundef %7, ptr noundef %8, i64 noundef %9, i64 noundef %11) #10
  ret ptr %12
}

; Function Attrs: null_pointer_is_valid sspstrong uwtable
define hidden void @proto_reg_handoff_ssyncp() #0 {
  %1 = alloca [25 x i8], align 16
  %2 = alloca i64, align 8
  %3 = alloca i32, align 4
  %4 = load i8, ptr @proto_reg_handoff_ssyncp.initialized, align 1, !range !6, !noundef !7
  %5 = trunc i8 %4 to i1
  br i1 %5, label %13, label %6

6:                                                ; preds = %0
  %7 = load ptr, ptr @ssyncp_handle, align 8
  call void @dissector_add_uint(ptr noundef @.str.45, i32 noundef 60001, ptr noundef %7)
  %8 = call ptr @find_dissector(ptr noundef @.str.46)
  store ptr %8, ptr @dissector_protobuf, align 8
  %9 = load ptr, ptr @dissector_protobuf, align 8
  %10 = icmp eq ptr %9, null
  br i1 %10, label %11, label %12

11:                                               ; preds = %6
  call void (ptr, ...) @report_failure(ptr noundef @.str.47)
  br label %12

12:                                               ; preds = %11, %6
  store i8 1, ptr @proto_reg_handoff_ssyncp.initialized, align 1
  br label %13

13:                                               ; preds = %12, %0
  store i8 0, ptr @have_ssyncp_key, align 1
  %14 = load ptr, ptr @pref_ssyncp_key, align 8
  %15 = call i64 @strlen(ptr noundef %14) #12
  %16 = icmp ne i64 %15, 0
  br i1 %16, label %17, label %42

17:                                               ; preds = %13
  %18 = load ptr, ptr @pref_ssyncp_key, align 8
  %19 = call i64 @strlen(ptr noundef %18) #12
  %20 = icmp ne i64 %19, 22
  br i1 %20, label %21, label %22

21:                                               ; preds = %17
  call void (ptr, ...) @report_failure(ptr noundef @.str.48)
  br label %42

22:                                               ; preds = %17
  call void @llvm.lifetime.start.p0(i64 25, ptr %1) #10
  %23 = getelementptr inbounds [25 x i8], ptr %1, i64 0, i64 0
  %24 = load ptr, ptr @pref_ssyncp_key, align 8
  %25 = call ptr @memcpy.inline(ptr noundef %23, ptr noundef %24, i64 noundef 22) #10
  %26 = getelementptr inbounds [25 x i8], ptr %1, i64 0, i64 0
  %27 = getelementptr i8, ptr %26, i64 22
  %28 = call ptr @memcpy.inline(ptr noundef %27, ptr noundef @.str.49, i64 noundef 3) #10
  call void @llvm.lifetime.start.p0(i64 8, ptr %2) #10
  %29 = getelementptr inbounds [25 x i8], ptr %1, i64 0, i64 0
  %30 = call ptr @g_base64_decode_inplace(ptr noundef %29, ptr noundef %2)
  %31 = icmp eq ptr %30, null
  br i1 %31, label %35, label %32

32:                                               ; preds = %22
  %33 = load i64, ptr %2, align 8
  %34 = icmp ne i64 %33, 16
  br i1 %34, label %35, label %36

35:                                               ; preds = %32, %22
  call void (ptr, ...) @report_failure(ptr noundef @.str.50)
  store i32 1, ptr %3, align 4
  br label %39

36:                                               ; preds = %32
  %37 = getelementptr inbounds [25 x i8], ptr %1, i64 0, i64 0
  %38 = call ptr @memcpy.inline(ptr noundef @ssyncp_raw_aes_key, ptr noundef %37, i64 noundef 16) #10
  store i8 1, ptr @have_ssyncp_key, align 1
  store i32 0, ptr %3, align 4
  br label %39

39:                                               ; preds = %36, %35
  call void @llvm.lifetime.end.p0(i64 8, ptr %2) #10
  call void @llvm.lifetime.end.p0(i64 25, ptr %1) #10
  %40 = load i32, ptr %3, align 4
  switch i32 %40, label %43 [
    i32 0, label %41
    i32 1, label %42
  ]

41:                                               ; preds = %39
  br label %42

42:                                               ; preds = %21, %39, %41, %13
  ret void

43:                                               ; preds = %39
  unreachable
}