; Function Attrs: null_pointer_is_valid sspstrong uwtable
define hidden void @proto_reg_handoff_ssyncp() #0 {
  %1 = alloca [25 x i8], align 16
  %2 = alloca i64, align 8
  %.b2 = load i1, ptr @proto_reg_handoff_ssyncp.initialized, align 1
  br i1 %.b2, label %9, label %3

3:                                                ; preds = %0
  %4 = load ptr, ptr @ssyncp_handle, align 8
  tail call void @dissector_add_uint(ptr noundef nonnull @.str.45, i32 noundef 60001, ptr noundef %4)
  %5 = tail call ptr @find_dissector(ptr noundef nonnull @.str.46)
  store ptr %5, ptr @dissector_protobuf, align 8
  %6 = icmp eq ptr %5, null
  br i1 %6, label %7, label %8

7:                                                ; preds = %3
  tail call void (ptr, ...) @report_failure(ptr noundef nonnull @.str.47)
  br label %8

8:                                                ; preds = %7, %3
  store i1 true, ptr @proto_reg_handoff_ssyncp.initialized, align 1
  br label %9

9:                                                ; preds = %8, %0
  store i1 false, ptr @have_ssyncp_key, align 1
  %10 = load ptr, ptr @pref_ssyncp_key, align 8
  %11 = tail call i64 @strlen(ptr noundef %10) #8
  switch i64 %11, label %12 [
    i64 0, label %22
    i64 22, label %13
  ]

12:                                               ; preds = %9
  tail call void (ptr, ...) @report_failure(ptr noundef nonnull @.str.48)
  br label %22

13:                                               ; preds = %9
  call void @llvm.lifetime.start.p0(i64 25, ptr nonnull %1) #7
  call void @llvm.memcpy.p0.p0.i64(ptr noundef nonnull align 16 dereferenceable(22) %1, ptr noundef align 1 dereferenceable(22) %10, i64 noundef 22, i1 noundef false) #7
  %14 = getelementptr inbounds nuw i8, ptr %1, i64 22
  call void @llvm.memcpy.p0.p0.i64(ptr noundef nonnull align 2 dereferenceable(3) %14, ptr noundef nonnull align 1 dereferenceable(3) @.str.49, i64 noundef 3, i1 noundef false) #7
  call void @llvm.lifetime.start.p0(i64 8, ptr nonnull %2) #7
  %15 = call ptr @g_base64_decode_inplace(ptr noundef nonnull %1, ptr noundef nonnull %2)
  %16 = icmp eq ptr %15, null
  %17 = load i64, ptr %2, align 8
  %18 = icmp ne i64 %17, 16
  %or.cond = select i1 %16, i1 true, i1 %18
  br i1 %or.cond, label %19, label %20

19:                                               ; preds = %13
  call void (ptr, ...) @report_failure(ptr noundef nonnull @.str.50)
  br label %21

20:                                               ; preds = %13
  call void @llvm.memcpy.p0.p0.i64(ptr noundef nonnull align 16 dereferenceable(16) @ssyncp_raw_aes_key, ptr noundef nonnull align 16 dereferenceable(16) %1, i64 noundef 16, i1 noundef false) #7
  store i1 true, ptr @have_ssyncp_key, align 1
  br label %21

21:                                               ; preds = %20, %19
  call void @llvm.lifetime.end.p0(i64 8, ptr nonnull %2) #7
  call void @llvm.lifetime.end.p0(i64 25, ptr nonnull %1) #7
  br label %22

22:                                               ; preds = %9, %21, %12
  ret void
}